target datalayout = "e-m:e-p270:32:32-p271:32:32-p272:64:64-i64:64-i128:128-f80:128-n8:16:32:64-S128"
target triple = "x86_64-pc-linux-gnu"

%struct.dasm_State = type { i64, ptr, ptr, i64, ptr, i64, ptr, ptr, i64, i32, i32, [1 x %struct.dasm_Section] }
%struct.dasm_Section = type { ptr, ptr, i64, i32, i32, i32 }

; Function Attrs: nounwind uwtable
define hidden void @dasm_setup(ptr noundef %0, ptr noundef %1) #0 {
  %3 = alloca ptr, align 8
  %4 = alloca ptr, align 8
  %5 = alloca ptr, align 8
  %6 = alloca i32, align 4
  store ptr %0, ptr %3, align 8
  store ptr %1, ptr %4, align 8
  %7 = load ptr, ptr %3, align 8
  %8 = load ptr, ptr %7, align 8
  store ptr %8, ptr %5, align 8
  %9 = load ptr, ptr %4, align 8
  %10 = load ptr, ptr %5, align 8
  %11 = getelementptr inbounds %struct.dasm_State, ptr %10, i32 0, i32 1
  store ptr %9, ptr %11, align 8
  %12 = load ptr, ptr %5, align 8
  %13 = getelementptr inbounds %struct.dasm_State, ptr %12, i32 0, i32 10
  store i32 0, ptr %13, align 4
  %14 = load ptr, ptr %5, align 8
  %15 = getelementptr inbounds %struct.dasm_State, ptr %14, i32 0, i32 11
  %16 = getelementptr inbounds [1 x %struct.dasm_Section], ptr %15, i64 0, i64 0
  %17 = load ptr, ptr %5, align 8
  %18 = getelementptr inbounds %struct.dasm_State, ptr %17, i32 0, i32 7
  store ptr %16, ptr %18, align 8
  %19 = load ptr, ptr %5, align 8
  %20 = getelementptr inbounds %struct.dasm_State, ptr %19, i32 0, i32 2
  %21 = load ptr, ptr %20, align 8
  %22 = load ptr, ptr %5, align 8
  %23 = getelementptr inbounds %struct.dasm_State, ptr %22, i32 0, i32 3
  %24 = load i64, ptr %23, align 8
  call void @llvm.memset.p0.i64(ptr align 1 %21, i8 0, i64 %24, i1 false)
  %25 = load ptr, ptr %5, align 8
  %26 = getelementptr inbounds %struct.dasm_State, ptr %25, i32 0, i32 4
  %27 = load ptr, ptr %26, align 8
  %28 = icmp ne ptr %27, null
  br i1 %28, label %29, label %36

29:                                               ; preds = %2
  %30 = load ptr, ptr %5, align 8
  %31 = getelementptr inbounds %struct.dasm_State, ptr %30, i32 0, i32 4
  %32 = load ptr, ptr %31, align 8
  %33 = load ptr, ptr %5, align 8
  %34 = getelementptr inbounds %struct.dasm_State, ptr %33, i32 0, i32 5
  %35 = load i64, ptr %34, align 8
  call void @llvm.memset.p0.i64(ptr align 1 %32, i8 0, i64 %35, i1 false)
  br label %36

36:                                               ; preds = %29, %2
  store i32 0, ptr %6, align 4
  br label %37

37:                                               ; preds = %83, %36
  %38 = load i32, ptr %6, align 4
  %39 = load ptr, ptr %5, align 8
  %40 = getelementptr inbounds %struct.dasm_State, ptr %39, i32 0, i32 9
  %41 = load i32, ptr %40, align 8
  %42 = icmp slt i32 %38, %41
  br i1 %42, label %43, label %86

43:                                               ; preds = %37
  %44 = load i32, ptr %6, align 4
  %45 = shl i32 %44, 24
  %46 = load ptr, ptr %5, align 8
  %47 = getelementptr inbounds %struct.dasm_State, ptr %46, i32 0, i32 11
  %48 = load i32, ptr %6, align 4
  %49 = sext i32 %48 to i64
  %50 = getelementptr inbounds [1 x %struct.dasm_Section], ptr %47, i64 0, i64 %49
  %51 = getelementptr inbounds %struct.dasm_Section, ptr %50, i32 0, i32 3
  store i32 %45, ptr %51, align 8
  %52 = load ptr, ptr %5, align 8
  %53 = getelementptr inbounds %struct.dasm_State, ptr %52, i32 0, i32 11
  %54 = load i32, ptr %6, align 4
  %55 = sext i32 %54 to i64
  %56 = getelementptr inbounds [1 x %struct.dasm_Section], ptr %53, i64 0, i64 %55
  %57 = getelementptr inbounds %struct.dasm_Section, ptr %56, i32 0, i32 1
  %58 = load ptr, ptr %57, align 8
  %59 = ptrtoint ptr %58 to i64
  %60 = load ptr, ptr %5, align 8
  %61 = getelementptr inbounds %struct.dasm_State, ptr %60, i32 0, i32 11
  %62 = load i32, ptr %6, align 4
  %63 = sext i32 %62 to i64
  %64 = getelementptr inbounds [1 x %struct.dasm_Section], ptr %61, i64 0, i64 %63
  %65 = getelementptr inbounds %struct.dasm_Section, ptr %64, i32 0, i32 3
  %66 = load i32, ptr %65, align 8
  %67 = sext i32 %66 to i64
  %68 = mul i64 4, %67
  %69 = sub i64 %59, %68
  %70 = inttoptr i64 %69 to ptr
  %71 = load ptr, ptr %5, align 8
  %72 = getelementptr inbounds %struct.dasm_State, ptr %71, i32 0, i32 11
  %73 = load i32, ptr %6, align 4
  %74 = sext i32 %73 to i64
  %75 = getelementptr inbounds [1 x %struct.dasm_Section], ptr %72, i64 0, i64 %74
  %76 = getelementptr inbounds %struct.dasm_Section, ptr %75, i32 0, i32 0
  store ptr %70, ptr %76, align 8
  %77 = load ptr, ptr %5, align 8
  %78 = getelementptr inbounds %struct.dasm_State, ptr %77, i32 0, i32 11
  %79 = load i32, ptr %6, align 4
  %80 = sext i32 %79 to i64
  %81 = getelementptr inbounds [1 x %struct.dasm_Section], ptr %78, i64 0, i64 %80
  %82 = getelementptr inbounds %struct.dasm_Section, ptr %81, i32 0, i32 5
  store i32 0, ptr %82, align 8
  br label %83

83:                                               ; preds = %43
  %84 = load i32, ptr %6, align 4
  %85 = add nsw i32 %84, 1
  store i32 %85, ptr %6, align 4
  br label %37

86:                                               ; preds = %37
  ret void
}