; Function Attrs: nofree norecurse nosync nounwind memory(readwrite, inaccessiblemem: none) uwtable
define hidden void @dasm_setup(ptr nocapture noundef readonly %0, ptr noundef %1) local_unnamed_addr #6 {
  %3 = load ptr, ptr %0, align 8
  %4 = getelementptr inbounds i8, ptr %3, i64 8
  store ptr %1, ptr %4, align 8
  %5 = getelementptr inbounds i8, ptr %3, i64 76
  store i32 0, ptr %5, align 4
  %6 = getelementptr inbounds i8, ptr %3, i64 80
  %7 = getelementptr inbounds i8, ptr %3, i64 56
  store ptr %6, ptr %7, align 8
  %8 = getelementptr inbounds i8, ptr %3, i64 16
  %9 = load ptr, ptr %8, align 8
  %10 = getelementptr inbounds i8, ptr %3, i64 24
  %11 = load i64, ptr %10, align 8
  tail call void @llvm.memset.p0.i64(ptr align 1 %9, i8 0, i64 %11, i1 false)
  %12 = getelementptr inbounds i8, ptr %3, i64 32
  %13 = load ptr, ptr %12, align 8
  %.not = icmp eq ptr %13, null
  br i1 %.not, label %17, label %14

14:                                               ; preds = %2
  %15 = getelementptr inbounds i8, ptr %3, i64 40
  %16 = load i64, ptr %15, align 8
  tail call void @llvm.memset.p0.i64(ptr nonnull align 1 %13, i8 0, i64 %16, i1 false)
  br label %17

17:                                               ; preds = %14, %2
  %18 = getelementptr inbounds i8, ptr %3, i64 72
  %19 = load i32, ptr %18, align 8
  %20 = icmp sgt i32 %19, 0
  br i1 %20, label %.lr.ph.preheader, label %._crit_edge

.lr.ph.preheader:                                 ; preds = %17
  %21 = zext nneg i32 %19 to i64
  br label %.lr.ph

.lr.ph:                                           ; preds = %.lr.ph.preheader, %.lr.ph
  %indvars.iv = phi i64 [ 0, %.lr.ph.preheader ], [ %indvars.iv.next, %.lr.ph ]
  %22 = trunc i64 %indvars.iv to i32
  %23 = shl i32 %22, 24
  %24 = getelementptr inbounds [1 x %struct.dasm_Section], ptr %6, i64 0, i64 %indvars.iv
  %25 = getelementptr inbounds i8, ptr %24, i64 24
  store i32 %23, ptr %25, align 8
  %26 = getelementptr inbounds i8, ptr %24, i64 8
  %27 = load ptr, ptr %26, align 8
  %28 = ptrtoint ptr %27 to i64
  %29 = sext i32 %23 to i64
  %30 = shl nsw i64 %29, 2
  %31 = sub i64 %28, %30
  %32 = inttoptr i64 %31 to ptr
  store ptr %32, ptr %24, align 8
  %33 = getelementptr inbounds i8, ptr %24, i64 32
  store i32 0, ptr %33, align 8
  %indvars.iv.next = add nuw nsw i64 %indvars.iv, 1
  %34 = icmp ult i64 %indvars.iv.next, %21
  br i1 %34, label %.lr.ph, label %._crit_edge

._crit_edge:                                      ; preds = %.lr.ph, %17
  ret void
}